target datalayout = "e-m:e-p270:32:32-p271:32:32-p272:64:64-i64:64-i128:128-f80:128-n8:16:32:64-S128"
target triple = "x86_64-pc-linux-gnu"

%"class.llvm::StringRef" = type { ptr, i64 }
%"class.std::unique_ptr" = type { %"struct.std::__uniq_ptr_data" }
%"struct.std::__uniq_ptr_data" = type { %"class.std::__uniq_ptr_impl" }
%"class.std::__uniq_ptr_impl" = type { %"class.std::tuple" }
%"class.std::tuple" = type { %"struct.std::_Tuple_impl" }
%"struct.std::_Tuple_impl" = type { %"struct.std::_Head_base.1" }
%"struct.std::_Head_base.1" = type { ptr }
%"struct.std::_Rb_tree_header" = type { %"struct.std::_Rb_tree_node_base", i64 }
%"struct.std::_Rb_tree_node_base" = type { i32, ptr, ptr, ptr }
%"class.std::__cxx11::basic_string" = type { %"struct.std::__cxx11::basic_string<char>::_Alloc_hider", i64, %union.anon }
%"struct.std::__cxx11::basic_string<char>::_Alloc_hider" = type { ptr }
%union.anon = type { i64, [8 x i8] }
%"class.llvm::SmallVectorBase" = type { ptr, i32, i32 }
%"class.llvm::TGParser" = type <{ %"class.llvm::TGLexer", %"class.std::vector.66", %"class.std::map.71", %"class.std::map.76", %"class.std::vector.81", %"class.llvm::SmallVector.86", ptr, %"class.std::unique_ptr", ptr, i8, i8, [6 x i8] }>
%"class.llvm::TGLexer" = type { ptr, ptr, %"class.llvm::StringRef", ptr, i32, %"class.std::__cxx11::basic_string", i64, i32, %"class.std::set", %"class.llvm::StringSet", %"class.std::vector.61" }
%"class.std::set" = type { %"class.std::_Rb_tree.55" }
%"class.std::_Rb_tree.55" = type { %"struct.std::_Rb_tree<std::__cxx11::basic_string<char>, std::__cxx11::basic_string<char>, std::_Identity<std::__cxx11::basic_string<char>>, std::less<std::__cxx11::basic_string<char>>>::_Rb_tree_impl" }
%"struct.std::_Rb_tree<std::__cxx11::basic_string<char>, std::__cxx11::basic_string<char>, std::_Identity<std::__cxx11::basic_string<char>>, std::less<std::__cxx11::basic_string<char>>>::_Rb_tree_impl" = type { [8 x i8], %"struct.std::_Rb_tree_header" }
%"class.llvm::StringSet" = type { %"class.llvm::StringMap.60" }
%"class.llvm::StringMap.60" = type { %"class.llvm::StringMapImpl" }
%"class.llvm::StringMapImpl" = type { ptr, i32, i32, i32, i32 }
%"class.std::vector.61" = type { %"struct.std::_Vector_base.62" }
%"struct.std::_Vector_base.62" = type { %"struct.std::_Vector_base<std::unique_ptr<std::vector<llvm::TGLexer::PreprocessorControlDesc>>, std::allocator<std::unique_ptr<std::vector<llvm::TGLexer::PreprocessorControlDesc>>>>::_Vector_impl" }
%"struct.std::_Vector_base<std::unique_ptr<std::vector<llvm::TGLexer::PreprocessorControlDesc>>, std::allocator<std::unique_ptr<std::vector<llvm::TGLexer::PreprocessorControlDesc>>>>::_Vector_impl" = type { %"struct.std::_Vector_base<std::unique_ptr<std::vector<llvm::TGLexer::PreprocessorControlDesc>>, std::allocator<std::unique_ptr<std::vector<llvm::TGLexer::PreprocessorControlDesc>>>>::_Vector_impl_data" }
%"struct.std::_Vector_base<std::unique_ptr<std::vector<llvm::TGLexer::PreprocessorControlDesc>>, std::allocator<std::unique_ptr<std::vector<llvm::TGLexer::PreprocessorControlDesc>>>>::_Vector_impl_data" = type { ptr, ptr, ptr }
%"class.std::vector.66" = type { %"struct.std::_Vector_base.67" }
%"struct.std::_Vector_base.67" = type { %"struct.std::_Vector_base<llvm::SmallVector<llvm::LetRecord, 4>, std::allocator<llvm::SmallVector<llvm::LetRecord, 4>>>::_Vector_impl" }
%"struct.std::_Vector_base<llvm::SmallVector<llvm::LetRecord, 4>, std::allocator<llvm::SmallVector<llvm::LetRecord, 4>>>::_Vector_impl" = type { %"struct.std::_Vector_base<llvm::SmallVector<llvm::LetRecord, 4>, std::allocator<llvm::SmallVector<llvm::LetRecord, 4>>>::_Vector_impl_data" }
%"struct.std::_Vector_base<llvm::SmallVector<llvm::LetRecord, 4>, std::allocator<llvm::SmallVector<llvm::LetRecord, 4>>>::_Vector_impl_data" = type { ptr, ptr, ptr }
%"class.std::map.71" = type { %"class.std::_Rb_tree.72" }
%"class.std::_Rb_tree.72" = type { %"struct.std::_Rb_tree<std::__cxx11::basic_string<char>, std::pair<const std::__cxx11::basic_string<char>, std::unique_ptr<llvm::MultiClass>>, std::_Select1st<std::pair<const std::__cxx11::basic_string<char>, std::unique_ptr<llvm::MultiClass>>>, std::less<std::__cxx11::basic_string<char>>>::_Rb_tree_impl" }
%"struct.std::_Rb_tree<std::__cxx11::basic_string<char>, std::pair<const std::__cxx11::basic_string<char>, std::unique_ptr<llvm::MultiClass>>, std::_Select1st<std::pair<const std::__cxx11::basic_string<char>, std::unique_ptr<llvm::MultiClass>>>, std::less<std::__cxx11::basic_string<char>>>::_Rb_tree_impl" = type { [8 x i8], %"struct.std::_Rb_tree_header" }
%"class.std::map.76" = type { %"class.std::_Rb_tree.77" }
%"class.std::_Rb_tree.77" = type { %"struct.std::_Rb_tree<std::__cxx11::basic_string<char>, std::pair<const std::__cxx11::basic_string<char>, llvm::RecTy *>, std::_Select1st<std::pair<const std::__cxx11::basic_string<char>, llvm::RecTy *>>, std::less<std::__cxx11::basic_string<char>>>::_Rb_tree_impl" }
%"struct.std::_Rb_tree<std::__cxx11::basic_string<char>, std::pair<const std::__cxx11::basic_string<char>, llvm::RecTy *>, std::_Select1st<std::pair<const std::__cxx11::basic_string<char>, llvm::RecTy *>>, std::less<std::__cxx11::basic_string<char>>>::_Rb_tree_impl" = type { [8 x i8], %"struct.std::_Rb_tree_header" }
%"class.std::vector.81" = type { %"struct.std::_Vector_base.82" }
%"struct.std::_Vector_base.82" = type { %"struct.std::_Vector_base<std::unique_ptr<llvm::ForeachLoop>, std::allocator<std::unique_ptr<llvm::ForeachLoop>>>::_Vector_impl" }
%"struct.std::_Vector_base<std::unique_ptr<llvm::ForeachLoop>, std::allocator<std::unique_ptr<llvm::ForeachLoop>>>::_Vector_impl" = type { %"struct.std::_Vector_base<std::unique_ptr<llvm::ForeachLoop>, std::allocator<std::unique_ptr<llvm::ForeachLoop>>>::_Vector_impl_data" }
%"struct.std::_Vector_base<std::unique_ptr<llvm::ForeachLoop>, std::allocator<std::unique_ptr<llvm::ForeachLoop>>>::_Vector_impl_data" = type { ptr, ptr, ptr }
%"class.llvm::SmallVector.86" = type { %"class.llvm::SmallVectorImpl.87", %"struct.llvm::SmallVectorStorage.90" }
%"class.llvm::SmallVectorImpl.87" = type { %"class.llvm::SmallVectorTemplateBase.88" }
%"class.llvm::SmallVectorTemplateBase.88" = type { %"class.llvm::SmallVectorTemplateCommon.89" }
%"class.llvm::SmallVectorTemplateCommon.89" = type { %"class.llvm::SmallVectorBase" }
%"struct.llvm::SmallVectorStorage.90" = type { [16 x i8] }

; Function Attrs: mustprogress nounwind uwtable
define linkonce_odr hidden noundef ptr @_ZNK4llvm25SmallVectorTemplateCommonIPNS_4InitEvE10getFirstElEv(ptr noundef nonnull align 8 dereferenceable(16) %0) #0 comdat align 2 {
  %2 = alloca ptr, align 8
  store ptr %0, ptr %2, align 8
  %3 = load ptr, ptr %2, align 8
  %4 = getelementptr inbounds i8, ptr %3, i64 16
  ret ptr %4
}

; Function Attrs: mustprogress nounwind uwtable
define linkonce_odr hidden void @_ZN4llvm25SmallVectorTemplateCommonIPNS_4InitEvE8grow_podEmm(ptr noundef nonnull align 8 dereferenceable(16) %0, i64 noundef %1, i64 noundef %2) #0 comdat align 2 {
  %4 = alloca ptr, align 8
  %5 = alloca i64, align 8
  %6 = alloca i64, align 8
  store ptr %0, ptr %4, align 8
  store i64 %1, ptr %5, align 8
  store i64 %2, ptr %6, align 8
  %7 = load ptr, ptr %4, align 8
  %8 = call noundef ptr @_ZNK4llvm25SmallVectorTemplateCommonIPNS_4InitEvE10getFirstElEv(ptr noundef nonnull align 8 dereferenceable(16) %7)
  %9 = load i64, ptr %5, align 8
  %10 = load i64, ptr %6, align 8
  call void @_ZN4llvm15SmallVectorBaseIjE8grow_podEPvmm(ptr noundef nonnull align 8 dereferenceable(16) %7, ptr noundef %8, i64 noundef %9, i64 noundef %10)
  ret void
}

; Function Attrs: mustprogress nounwind uwtable
define linkonce_odr hidden void @_ZN4llvm23SmallVectorTemplateBaseIPNS_4InitELb1EE4growEm(ptr noundef nonnull align 8 dereferenceable(16) %0, i64 noundef %1) #0 comdat align 2 {
  %3 = alloca ptr, align 8
  %4 = alloca i64, align 8
  store ptr %0, ptr %3, align 8
  store i64 %1, ptr %4, align 8
  %5 = load ptr, ptr %3, align 8
  %6 = load i64, ptr %4, align 8
  call void @_ZN4llvm25SmallVectorTemplateCommonIPNS_4InitEvE8grow_podEmm(ptr noundef nonnull align 8 dereferenceable(16) %5, i64 noundef %6, i64 noundef 8)
  ret void
}

; Function Attrs: mustprogress nounwind uwtable
define linkonce_odr hidden noundef ptr @_ZNK4llvm9StringRef5beginEv(ptr noundef nonnull align 8 dereferenceable(16) %0) #0 comdat align 2 {
  %2 = alloca ptr, align 8
  store ptr %0, ptr %2, align 8
  %3 = load ptr, ptr %2, align 8
  %4 = getelementptr inbounds nuw %"class.llvm::StringRef", ptr %3, i32 0, i32 0
  %5 = load ptr, ptr %4, align 8
  ret ptr %5
}

; Function Attrs: mustprogress nounwind uwtable
define linkonce_odr hidden noundef ptr @_ZN4llvm25SmallVectorTemplateCommonIPNS_4InitEvE32reserveForParamAndGetAddressImplINS_23SmallVectorTemplateBaseIS2_Lb1EEEEEPKS2_PT_RS7_m(ptr noundef %0, ptr noundef nonnull align 8 dereferenceable(8) %1, i64 noundef %2) #0 comdat align 2 {
  %4 = alloca ptr, align 8
  %5 = alloca ptr, align 8
  %6 = alloca ptr, align 8
  %7 = alloca i64, align 8
  %8 = alloca i64, align 8
  %9 = alloca i8, align 1
  %10 = alloca i64, align 8
  store ptr %0, ptr %5, align 8
  store ptr %1, ptr %6, align 8
  store i64 %2, ptr %7, align 8
  %11 = load ptr, ptr %5, align 8
  %12 = call noundef i64 @_ZNK4llvm15SmallVectorBaseIjE4sizeEv(ptr noundef nonnull align 8 dereferenceable(16) %11)
  %13 = load i64, ptr %7, align 8
  %14 = add i64 %12, %13
  store i64 %14, ptr %8, align 8
  %15 = load i64, ptr %8, align 8
  %16 = load ptr, ptr %5, align 8
  %17 = call noundef i64 @_ZNK4llvm15SmallVectorBaseIjE8capacityEv(ptr noundef nonnull align 8 dereferenceable(16) %16)
  %18 = icmp ule i64 %15, %17
  br i1 %18, label %19, label %21

19:                                               ; preds = %3
  %20 = load ptr, ptr %6, align 8
  store ptr %20, ptr %4, align 8
  br label %35

21:                                               ; preds = %3
  store i8 0, ptr %9, align 1
  store i64 -1, ptr %10, align 8
  %22 = load ptr, ptr %5, align 8
  %23 = load i64, ptr %8, align 8
  call void @_ZN4llvm23SmallVectorTemplateBaseIPNS_4InitELb1EE4growEm(ptr noundef nonnull align 8 dereferenceable(16) %22, i64 noundef %23)
  %24 = load i8, ptr %9, align 1
  %25 = trunc i8 %24 to i1
  br i1 %25, label %26, label %31

26:                                               ; preds = %21
  %27 = load ptr, ptr %5, align 8
  %28 = call noundef ptr @_ZN4llvm25SmallVectorTemplateCommonIPNS_4InitEvE5beginEv(ptr noundef nonnull align 8 dereferenceable(16) %27)
  %29 = load i64, ptr %10, align 8
  %30 = getelementptr inbounds ptr, ptr %28, i64 %29
  br label %33

31:                                               ; preds = %21
  %32 = load ptr, ptr %6, align 8
  br label %33

33:                                               ; preds = %31, %26
  %34 = phi ptr [ %30, %26 ], [ %32, %31 ]
  store ptr %34, ptr %4, align 8
  br label %35

35:                                               ; preds = %33, %19
  %36 = load ptr, ptr %4, align 8
  ret ptr %36
}

; Function Attrs: mustprogress nounwind uwtable
define linkonce_odr hidden noundef i32 @_ZN4llvm7TGLexer3LexEv(ptr noundef nonnull align 8 dereferenceable(192) %0) #0 comdat align 2 {
  %2 = alloca ptr, align 8
  store ptr %0, ptr %2, align 8
  %3 = load ptr, ptr %2, align 8
  %4 = getelementptr inbounds nuw %"class.llvm::TGLexer", ptr %3, i32 0, i32 1
  %5 = load ptr, ptr %4, align 8
  %6 = getelementptr inbounds nuw %"class.llvm::TGLexer", ptr %3, i32 0, i32 2
  %7 = call noundef ptr @_ZNK4llvm9StringRef5beginEv(ptr noundef nonnull align 8 dereferenceable(16) %6)
  %8 = icmp eq ptr %5, %7
  %9 = call noundef i32 @_ZN4llvm7TGLexer8LexTokenEb(ptr noundef nonnull align 8 dereferenceable(192) %3, i1 noundef zeroext %8)
  %10 = getelementptr inbounds nuw %"class.llvm::TGLexer", ptr %3, i32 0, i32 4
  store i32 %9, ptr %10, align 8
  ret i32 %9
}

; Function Attrs: mustprogress nounwind uwtable
define linkonce_odr hidden void @_ZN4llvm23SmallVectorTemplateBaseIPNS_4InitELb1EE13destroy_rangeEPS2_S4_(ptr noundef %0, ptr noundef %1) #0 comdat align 2 {
  %3 = alloca ptr, align 8
  %4 = alloca ptr, align 8
  store ptr %0, ptr %3, align 8
  store ptr %1, ptr %4, align 8
  ret void
}

; Function Attrs: mustprogress nounwind uwtable
define linkonce_odr hidden noundef ptr @_ZN4llvm25SmallVectorTemplateCommonIPNS_4InitEvE5beginEv(ptr noundef nonnull align 8 dereferenceable(16) %0) #0 comdat align 2 {
  %2 = alloca ptr, align 8
  store ptr %0, ptr %2, align 8
  %3 = load ptr, ptr %2, align 8
  %4 = getelementptr inbounds nuw %"class.llvm::SmallVectorBase", ptr %3, i32 0, i32 0
  %5 = load ptr, ptr %4, align 8
  ret ptr %5
}

; Function Attrs: mustprogress nounwind uwtable
define linkonce_odr hidden noundef ptr @_ZN4llvm25SmallVectorTemplateCommonIPNS_4InitEvE3endEv(ptr noundef nonnull align 8 dereferenceable(16) %0) #0 comdat align 2 {
  %2 = alloca ptr, align 8
  store ptr %0, ptr %2, align 8
  %3 = load ptr, ptr %2, align 8
  %4 = call noundef ptr @_ZN4llvm25SmallVectorTemplateCommonIPNS_4InitEvE5beginEv(ptr noundef nonnull align 8 dereferenceable(16) %3)
  %5 = call noundef i64 @_ZNK4llvm15SmallVectorBaseIjE4sizeEv(ptr noundef nonnull align 8 dereferenceable(16) %3)
  %6 = getelementptr inbounds ptr, ptr %4, i64 %5
  ret ptr %6
}

; Function Attrs: mustprogress nounwind uwtable
define linkonce_odr hidden noundef ptr @_ZN4llvm23SmallVectorTemplateBaseIPNS_4InitELb1EE28reserveForParamAndGetAddressERS2_m(ptr noundef nonnull align 8 dereferenceable(16) %0, ptr noundef nonnull align 8 dereferenceable(8) %1, i64 noundef %2) #0 comdat align 2 {
  %4 = alloca ptr, align 8
  %5 = alloca ptr, align 8
  %6 = alloca i64, align 8
  store ptr %0, ptr %4, align 8
  store ptr %1, ptr %5, align 8
  store i64 %2, ptr %6, align 8
  %7 = load ptr, ptr %4, align 8
  %8 = load ptr, ptr %5, align 8
  %9 = load i64, ptr %6, align 8
  %10 = call noundef ptr @_ZN4llvm25SmallVectorTemplateCommonIPNS_4InitEvE32reserveForParamAndGetAddressImplINS_23SmallVectorTemplateBaseIS2_Lb1EEEEEPKS2_PT_RS7_m(ptr noundef %7, ptr noundef nonnull align 8 dereferenceable(8) %8, i64 noundef %9)
  ret ptr %10
}

; Function Attrs: mustprogress nounwind uwtable
define linkonce_odr hidden noundef i32 @_ZNK4llvm7TGLexer7getCodeEv(ptr noundef nonnull align 8 dereferenceable(192) %0) #0 comdat align 2 {
  %2 = alloca ptr, align 8
  store ptr %0, ptr %2, align 8
  %3 = load ptr, ptr %2, align 8
  %4 = getelementptr inbounds nuw %"class.llvm::TGLexer", ptr %3, i32 0, i32 4
  %5 = load i32, ptr %4, align 8
  ret i32 %5
}

; Function Attrs: mustprogress nounwind uwtable
define dso_local noundef zeroext i1 @_ZN4llvm8TGParser7consumeENS_5tgtok7TokKindE(ptr noundef nonnull align 8 dereferenceable(394) %0, i32 noundef %1) #0 align 2 {
  %3 = alloca i1, align 1
  %4 = alloca ptr, align 8
  %5 = alloca i32, align 4
  store ptr %0, ptr %4, align 8
  store i32 %1, ptr %5, align 4
  %6 = load ptr, ptr %4, align 8
  %7 = getelementptr inbounds nuw %"class.llvm::TGParser", ptr %6, i32 0, i32 0
  %8 = call noundef i32 @_ZNK4llvm7TGLexer7getCodeEv(ptr noundef nonnull align 8 dereferenceable(192) %7)
  %9 = load i32, ptr %5, align 4
  %10 = icmp eq i32 %8, %9
  br i1 %10, label %11, label %14

11:                                               ; preds = %2
  %12 = getelementptr inbounds nuw %"class.llvm::TGParser", ptr %6, i32 0, i32 0
  %13 = call noundef i32 @_ZN4llvm7TGLexer3LexEv(ptr noundef nonnull align 8 dereferenceable(192) %12)
  store i1 true, ptr %3, align 1
  br label %15

14:                                               ; preds = %2
  store i1 false, ptr %3, align 1
  br label %15

15:                                               ; preds = %14, %11
  %16 = load i1, ptr %3, align 1
  ret i1 %16
}

; Function Attrs: mustprogress nounwind uwtable
define linkonce_odr hidden void @_ZN4llvm15SmallVectorImplIPNS_4InitEE5clearEv(ptr noundef nonnull align 8 dereferenceable(16) %0) #0 comdat align 2 {
  %2 = alloca ptr, align 8
  store ptr %0, ptr %2, align 8
  %3 = load ptr, ptr %2, align 8
  %4 = call noundef ptr @_ZN4llvm25SmallVectorTemplateCommonIPNS_4InitEvE5beginEv(ptr noundef nonnull align 8 dereferenceable(16) %3)
  %5 = call noundef ptr @_ZN4llvm25SmallVectorTemplateCommonIPNS_4InitEvE3endEv(ptr noundef nonnull align 8 dereferenceable(16) %3)
  call void @_ZN4llvm23SmallVectorTemplateBaseIPNS_4InitELb1EE13destroy_rangeEPS2_S4_(ptr noundef %4, ptr noundef %5)
  %6 = getelementptr inbounds nuw %"class.llvm::SmallVectorBase", ptr %3, i32 0, i32 1
  store i32 0, ptr %6, align 8
  ret void
}

; Function Attrs: mustprogress nounwind uwtable
define linkonce_odr hidden noundef nonnull align 8 dereferenceable(8) ptr @_ZN4llvm25SmallVectorTemplateCommonIPNS_4InitEvE4backEv(ptr noundef nonnull align 8 dereferenceable(16) %0) #0 comdat align 2 {
  %2 = alloca ptr, align 8
  store ptr %0, ptr %2, align 8
  %3 = load ptr, ptr %2, align 8
  %4 = call noundef ptr @_ZN4llvm25SmallVectorTemplateCommonIPNS_4InitEvE3endEv(ptr noundef nonnull align 8 dereferenceable(16) %3)
  %5 = getelementptr inbounds ptr, ptr %4, i64 -1
  ret ptr %5
}

; Function Attrs: mustprogress nounwind uwtable
define linkonce_odr hidden void @_ZN4llvm23SmallVectorTemplateBaseIPNS_4InitELb1EE9push_backES2_(ptr noundef nonnull align 8 dereferenceable(16) %0, ptr noundef %1) #0 comdat align 2 {
  %3 = alloca ptr, align 8
  %4 = alloca ptr, align 8
  %5 = alloca ptr, align 8
  store ptr %0, ptr %3, align 8
  store ptr %1, ptr %4, align 8
  %6 = load ptr, ptr %3, align 8
  %7 = call noundef ptr @_ZN4llvm23SmallVectorTemplateBaseIPNS_4InitELb1EE28reserveForParamAndGetAddressERS2_m(ptr noundef nonnull align 8 dereferenceable(16) %6, ptr noundef nonnull align 8 dereferenceable(8) %4, i64 noundef 1)
  store ptr %7, ptr %5, align 8
  %8 = call noundef ptr @_ZN4llvm25SmallVectorTemplateCommonIPNS_4InitEvE3endEv(ptr noundef nonnull align 8 dereferenceable(16) %6)
  %9 = load ptr, ptr %5, align 8
  call void @llvm.memcpy.p0.p0.i64(ptr align 1 %8, ptr align 8 %9, i64 8, i1 false)
  %10 = call noundef i64 @_ZNK4llvm15SmallVectorBaseIjE4sizeEv(ptr noundef nonnull align 8 dereferenceable(16) %6)
  %11 = add i64 %10, 1
  call void @_ZN4llvm15SmallVectorBaseIjE8set_sizeEm(ptr noundef nonnull align 8 dereferenceable(16) %6, i64 noundef %11)
  ret void
}

; Function Attrs: mustprogress nounwind uwtable
define dso_local void @_ZN4llvm8TGParser14ParseValueListERNS_15SmallVectorImplIPNS_4InitEEEPNS_6RecordEPNS_5RecTyE(ptr noundef nonnull align 8 dereferenceable(394) %0, ptr noundef nonnull align 8 dereferenceable(16) %1, ptr noundef %2, ptr noundef %3) #0 align 2 {
  %5 = alloca ptr, align 8
  %6 = alloca ptr, align 8
  %7 = alloca ptr, align 8
  %8 = alloca ptr, align 8
  store ptr %0, ptr %5, align 8
  store ptr %1, ptr %6, align 8
  store ptr %2, ptr %7, align 8
  store ptr %3, ptr %8, align 8
  %9 = load ptr, ptr %5, align 8
  %10 = load ptr, ptr %6, align 8
  %11 = load ptr, ptr %7, align 8
  %12 = load ptr, ptr %8, align 8
  %13 = call noundef ptr @_ZN4llvm8TGParser10ParseValueEPNS_6RecordEPNS_5RecTyENS0_11IDParseModeE(ptr noundef nonnull align 8 dereferenceable(394) %9, ptr noundef %11, ptr noundef %12, i32 noundef 0)
  call void @_ZN4llvm23SmallVectorTemplateBaseIPNS_4InitELb1EE9push_backES2_(ptr noundef nonnull align 8 dereferenceable(16) %10, ptr noundef %13)
  %14 = load ptr, ptr %6, align 8
  %15 = call noundef nonnull align 8 dereferenceable(8) ptr @_ZN4llvm25SmallVectorTemplateCommonIPNS_4InitEvE4backEv(ptr noundef nonnull align 8 dereferenceable(16) %14)
  %16 = load ptr, ptr %15, align 8
  %17 = icmp ne ptr %16, null
  br i1 %17, label %20, label %18

18:                                               ; preds = %4
  %19 = load ptr, ptr %6, align 8
  call void @_ZN4llvm15SmallVectorImplIPNS_4InitEE5clearEv(ptr noundef nonnull align 8 dereferenceable(16) %19)
  br label %40

20:                                               ; preds = %4
  br label %21

21:                                               ; preds = %39, %20
  %22 = call noundef zeroext i1 @_ZN4llvm8TGParser7consumeENS_5tgtok7TokKindE(ptr noundef nonnull align 8 dereferenceable(394) %9, i32 noundef 14)
  br i1 %22, label %23, label %40

23:                                               ; preds = %21
  %24 = getelementptr inbounds nuw %"class.llvm::TGParser", ptr %9, i32 0, i32 0
  %25 = call noundef i32 @_ZNK4llvm7TGLexer7getCodeEv(ptr noundef nonnull align 8 dereferenceable(192) %24)
  %26 = icmp eq i32 %25, 5
  br i1 %26, label %27, label %28

27:                                               ; preds = %23
  br label %40

28:                                               ; preds = %23
  %29 = load ptr, ptr %6, align 8
  %30 = load ptr, ptr %7, align 8
  %31 = load ptr, ptr %8, align 8
  %32 = call noundef ptr @_ZN4llvm8TGParser10ParseValueEPNS_6RecordEPNS_5RecTyENS0_11IDParseModeE(ptr noundef nonnull align 8 dereferenceable(394) %9, ptr noundef %30, ptr noundef %31, i32 noundef 0)
  call void @_ZN4llvm23SmallVectorTemplateBaseIPNS_4InitELb1EE9push_backES2_(ptr noundef nonnull align 8 dereferenceable(16) %29, ptr noundef %32)
  %33 = load ptr, ptr %6, align 8
  %34 = call noundef nonnull align 8 dereferenceable(8) ptr @_ZN4llvm25SmallVectorTemplateCommonIPNS_4InitEvE4backEv(ptr noundef nonnull align 8 dereferenceable(16) %33)
  %35 = load ptr, ptr %34, align 8
  %36 = icmp ne ptr %35, null
  br i1 %36, label %39, label %37

37:                                               ; preds = %28
  %38 = load ptr, ptr %6, align 8
  call void @_ZN4llvm15SmallVectorImplIPNS_4InitEE5clearEv(ptr noundef nonnull align 8 dereferenceable(16) %38)
  br label %40

39:                                               ; preds = %28
  br label %21, !llvm.loop !23

40:                                               ; preds = %37, %27, %21, %18
  ret void
}