; Function Attrs: mustprogress nounwind uwtable
define dso_local void @_ZN4llvm8TGParser14ParseValueListERNS_15SmallVectorImplIPNS_4InitEEEPNS_6RecordEPNS_5RecTyE(ptr noundef nonnull align 8 dereferenceable(394) %0, ptr noundef nonnull align 8 dereferenceable(16) %1, ptr noundef %2, ptr noundef %3) local_unnamed_addr #0 align 2 {
  %5 = tail call noundef ptr @_ZN4llvm8TGParser10ParseValueEPNS_6RecordEPNS_5RecTyENS0_11IDParseModeE(ptr noundef nonnull align 8 dereferenceable(394) %0, ptr noundef %2, ptr noundef %3, i32 noundef 0)
  %6 = tail call noundef i64 @_ZNK4llvm15SmallVectorBaseIjE4sizeEv(ptr noundef nonnull align 8 dereferenceable(16) %1) #17
  %7 = add i64 %6, 1
  %8 = tail call noundef i64 @_ZNK4llvm15SmallVectorBaseIjE8capacityEv(ptr noundef nonnull align 8 dereferenceable(16) %1) #17
  %.not.i.i.i = icmp ugt i64 %7, %8
  br i1 %.not.i.i.i, label %9, label %_ZN4llvm23SmallVectorTemplateBaseIPNS_4InitELb1EE9push_backES2_.exit

9:                                                ; preds = %4
  %10 = getelementptr inbounds nuw i8, ptr %1, i64 16
  tail call void @_ZN4llvm15SmallVectorBaseIjE8grow_podEPvmm(ptr noundef nonnull align 8 dereferenceable(16) %1, ptr noundef nonnull %10, i64 noundef %7, i64 noundef 8) #17
  br label %_ZN4llvm23SmallVectorTemplateBaseIPNS_4InitELb1EE9push_backES2_.exit

_ZN4llvm23SmallVectorTemplateBaseIPNS_4InitELb1EE9push_backES2_.exit: ; preds = %4, %9
  %11 = load ptr, ptr %1, align 8
  %12 = tail call noundef i64 @_ZNK4llvm15SmallVectorBaseIjE4sizeEv(ptr noundef nonnull align 8 dereferenceable(16) %1) #17
  %13 = getelementptr inbounds ptr, ptr %11, i64 %12
  %14 = ptrtoint ptr %5 to i64
  store i64 %14, ptr %13, align 1
  %15 = tail call noundef i64 @_ZNK4llvm15SmallVectorBaseIjE4sizeEv(ptr noundef nonnull align 8 dereferenceable(16) %1) #17
  %16 = add i64 %15, 1
  tail call void @_ZN4llvm15SmallVectorBaseIjE8set_sizeEm(ptr noundef nonnull align 8 dereferenceable(16) %1, i64 noundef %16) #17
  %17 = load ptr, ptr %1, align 8
  %18 = tail call noundef i64 @_ZNK4llvm15SmallVectorBaseIjE4sizeEv(ptr noundef nonnull align 8 dereferenceable(16) %1) #17
  %19 = getelementptr inbounds ptr, ptr %17, i64 %18
  %20 = getelementptr inbounds i8, ptr %19, i64 -8
  %21 = load ptr, ptr %20, align 8
  %.not = icmp eq ptr %21, null
  br i1 %.not, label %_ZN4llvm8TGParser7consumeENS_5tgtok7TokKindE.exit.sink.split, label %.preheader

.preheader:                                       ; preds = %_ZN4llvm23SmallVectorTemplateBaseIPNS_4InitELb1EE9push_backES2_.exit
  %22 = getelementptr inbounds nuw i8, ptr %0, i64 40
  %23 = getelementptr inbounds nuw i8, ptr %0, i64 8
  %24 = getelementptr inbounds nuw i8, ptr %0, i64 16
  %25 = getelementptr inbounds nuw i8, ptr %1, i64 16
  br label %26

26:                                               ; preds = %.preheader, %_ZN4llvm23SmallVectorTemplateBaseIPNS_4InitELb1EE9push_backES2_.exit13
  %27 = load i32, ptr %22, align 8
  %28 = icmp eq i32 %27, 14
  br i1 %28, label %29, label %_ZN4llvm8TGParser7consumeENS_5tgtok7TokKindE.exit

29:                                               ; preds = %26
  %30 = load ptr, ptr %23, align 8
  %31 = load ptr, ptr %24, align 8
  %32 = icmp eq ptr %30, %31
  %33 = tail call noundef i32 @_ZN4llvm7TGLexer8LexTokenEb(ptr noundef nonnull align 8 dereferenceable(394) %0, i1 noundef zeroext %32) #17
  store i32 %33, ptr %22, align 8
  %34 = icmp eq i32 %33, 5
  br i1 %34, label %_ZN4llvm8TGParser7consumeENS_5tgtok7TokKindE.exit, label %35

35:                                               ; preds = %29
  %36 = tail call noundef ptr @_ZN4llvm8TGParser10ParseValueEPNS_6RecordEPNS_5RecTyENS0_11IDParseModeE(ptr noundef nonnull align 8 dereferenceable(394) %0, ptr noundef %2, ptr noundef %3, i32 noundef 0)
  %37 = tail call noundef i64 @_ZNK4llvm15SmallVectorBaseIjE4sizeEv(ptr noundef nonnull align 8 dereferenceable(16) %1) #17
  %38 = add i64 %37, 1
  %39 = tail call noundef i64 @_ZNK4llvm15SmallVectorBaseIjE8capacityEv(ptr noundef nonnull align 8 dereferenceable(16) %1) #17
  %.not.i.i.i12 = icmp ugt i64 %38, %39
  br i1 %.not.i.i.i12, label %40, label %_ZN4llvm23SmallVectorTemplateBaseIPNS_4InitELb1EE9push_backES2_.exit13

40:                                               ; preds = %35
  tail call void @_ZN4llvm15SmallVectorBaseIjE8grow_podEPvmm(ptr noundef nonnull align 8 dereferenceable(16) %1, ptr noundef nonnull %25, i64 noundef %38, i64 noundef 8) #17
  br label %_ZN4llvm23SmallVectorTemplateBaseIPNS_4InitELb1EE9push_backES2_.exit13

_ZN4llvm23SmallVectorTemplateBaseIPNS_4InitELb1EE9push_backES2_.exit13: ; preds = %35, %40
  %41 = load ptr, ptr %1, align 8
  %42 = tail call noundef i64 @_ZNK4llvm15SmallVectorBaseIjE4sizeEv(ptr noundef nonnull align 8 dereferenceable(16) %1) #17
  %43 = getelementptr inbounds ptr, ptr %41, i64 %42
  %44 = ptrtoint ptr %36 to i64
  store i64 %44, ptr %43, align 1
  %45 = tail call noundef i64 @_ZNK4llvm15SmallVectorBaseIjE4sizeEv(ptr noundef nonnull align 8 dereferenceable(16) %1) #17
  %46 = add i64 %45, 1
  tail call void @_ZN4llvm15SmallVectorBaseIjE8set_sizeEm(ptr noundef nonnull align 8 dereferenceable(16) %1, i64 noundef %46) #17
  %47 = load ptr, ptr %1, align 8
  %48 = tail call noundef i64 @_ZNK4llvm15SmallVectorBaseIjE4sizeEv(ptr noundef nonnull align 8 dereferenceable(16) %1) #17
  %49 = getelementptr inbounds ptr, ptr %47, i64 %48
  %50 = getelementptr inbounds i8, ptr %49, i64 -8
  %51 = load ptr, ptr %50, align 8
  %.not11 = icmp eq ptr %51, null
  br i1 %.not11, label %_ZN4llvm8TGParser7consumeENS_5tgtok7TokKindE.exit.sink.split, label %26, !llvm.loop !497

_ZN4llvm8TGParser7consumeENS_5tgtok7TokKindE.exit.sink.split: ; preds = %_ZN4llvm23SmallVectorTemplateBaseIPNS_4InitELb1EE9push_backES2_.exit13, %_ZN4llvm23SmallVectorTemplateBaseIPNS_4InitELb1EE9push_backES2_.exit
  %52 = tail call noundef i64 @_ZNK4llvm15SmallVectorBaseIjE4sizeEv(ptr noundef nonnull align 8 dereferenceable(16) %1) #17
  %53 = getelementptr inbounds nuw i8, ptr %1, i64 8
  store i32 0, ptr %53, align 8
  br label %_ZN4llvm8TGParser7consumeENS_5tgtok7TokKindE.exit

_ZN4llvm8TGParser7consumeENS_5tgtok7TokKindE.exit: ; preds = %26, %29, %_ZN4llvm8TGParser7consumeENS_5tgtok7TokKindE.exit.sink.split
  ret void
}